; Function Attrs: mustprogress nofree norecurse nosync nounwind willreturn memory(argmem: readwrite) uwtable
define dso_local void @_ZN4Json5Value11swapPayloadERS0_(ptr nocapture noundef nonnull align 8 dereferenceable(40) %0, ptr nocapture noundef nonnull align 8 dereferenceable(40) %1) local_unnamed_addr #5 align 2 {
  %3 = getelementptr inbounds i8, ptr %0, i64 8
  %4 = getelementptr inbounds i8, ptr %1, i64 8
  %5 = load i32, ptr %3, align 8
  %6 = load i32, ptr %4, align 8
  store i32 %6, ptr %3, align 8
  store i32 %5, ptr %4, align 8
  %.sroa.0.0.copyload.i = load i64, ptr %0, align 8
  %7 = load i64, ptr %1, align 8
  store i64 %7, ptr %0, align 8
  store i64 %.sroa.0.0.copyload.i, ptr %1, align 8
  ret void
}